target datalayout = "e-m:e-p270:32:32-p271:32:32-p272:64:64-i64:64-i128:128-f80:128-n8:16:32:64-S128"
target triple = "x86_64-pc-linux-gnu"

%"struct.clang::detail::SearchDirIteratorImpl" = type { ptr, i64 }
%"struct.std::pair.491" = type { %"struct.clang::detail::SearchDirIteratorImpl", ptr }
%"class.std::tuple.493" = type { %"struct.std::_Tuple_impl.494" }
%"struct.std::_Tuple_impl.494" = type { %"struct.std::_Tuple_impl.495", %"struct.std::_Head_base.497" }
%"struct.std::_Tuple_impl.495" = type { %"struct.std::_Head_base.496" }
%"struct.std::_Head_base.496" = type { ptr }
%"struct.std::_Head_base.497" = type { ptr }

; Function Attrs: mustprogress nounwind uwtable
define linkonce_odr hidden void @_ZNSt10_Head_baseILm1ERPKN5clang9FileEntryELb0EEC2ES4_(ptr noundef nonnull align 8 dereferenceable(8) %0, ptr noundef nonnull align 8 dereferenceable(8) %1) unnamed_addr #0 comdat align 2 {
  %3 = alloca ptr, align 8
  %4 = alloca ptr, align 8
  store ptr %0, ptr %3, align 8
  store ptr %1, ptr %4, align 8
  %5 = load ptr, ptr %3, align 8
  %6 = getelementptr inbounds nuw %"struct.std::_Head_base.496", ptr %5, i32 0, i32 0
  %7 = load ptr, ptr %4, align 8
  store ptr %7, ptr %6, align 8
  ret void
}

; Function Attrs: mustprogress nounwind uwtable
define linkonce_odr hidden void @_ZNSt10_Head_baseILm0ERN5clang6detail21SearchDirIteratorImplILb1EEELb0EEC2ES4_(ptr noundef nonnull align 8 dereferenceable(8) %0, ptr noundef nonnull align 8 dereferenceable(16) %1) unnamed_addr #0 comdat align 2 {
  %3 = alloca ptr, align 8
  %4 = alloca ptr, align 8
  store ptr %0, ptr %3, align 8
  store ptr %1, ptr %4, align 8
  %5 = load ptr, ptr %3, align 8
  %6 = getelementptr inbounds nuw %"struct.std::_Head_base.497", ptr %5, i32 0, i32 0
  %7 = load ptr, ptr %4, align 8
  store ptr %7, ptr %6, align 8
  ret void
}

; Function Attrs: mustprogress nounwind uwtable
define linkonce_odr hidden void @_ZNSt11_Tuple_implILm1EJRPKN5clang9FileEntryEEEC2ES4_(ptr noundef nonnull align 8 dereferenceable(8) %0, ptr noundef nonnull align 8 dereferenceable(8) %1) unnamed_addr #0 comdat align 2 {
  %3 = alloca ptr, align 8
  %4 = alloca ptr, align 8
  store ptr %0, ptr %3, align 8
  store ptr %1, ptr %4, align 8
  %5 = load ptr, ptr %3, align 8
  %6 = load ptr, ptr %4, align 8
  call void @_ZNSt10_Head_baseILm1ERPKN5clang9FileEntryELb0EEC2ES4_(ptr noundef nonnull align 8 dereferenceable(8) %5, ptr noundef nonnull align 8 dereferenceable(8) %6)
  ret void
}

; Function Attrs: mustprogress nounwind uwtable
define linkonce_odr hidden noundef nonnull align 8 dereferenceable(8) ptr @_ZNSt10_Head_baseILm1ERPKN5clang9FileEntryELb0EE7_M_headERS5_(ptr noundef nonnull align 8 dereferenceable(8) %0) #0 comdat align 2 {
  %2 = alloca ptr, align 8
  store ptr %0, ptr %2, align 8
  %3 = load ptr, ptr %2, align 8
  %4 = getelementptr inbounds nuw %"struct.std::_Head_base.496", ptr %3, i32 0, i32 0
  %5 = load ptr, ptr %4, align 8
  ret ptr %5
}

; Function Attrs: mustprogress nounwind uwtable
define linkonce_odr hidden noundef nonnull align 8 dereferenceable(16) ptr @_ZNSt10_Head_baseILm0ERN5clang6detail21SearchDirIteratorImplILb1EEELb0EE7_M_headERS5_(ptr noundef nonnull align 8 dereferenceable(8) %0) #0 comdat align 2 {
  %2 = alloca ptr, align 8
  store ptr %0, ptr %2, align 8
  %3 = load ptr, ptr %2, align 8
  %4 = getelementptr inbounds nuw %"struct.std::_Head_base.497", ptr %3, i32 0, i32 0
  %5 = load ptr, ptr %4, align 8
  ret ptr %5
}

; Function Attrs: mustprogress nounwind uwtable
define linkonce_odr hidden void @_ZNSt11_Tuple_implILm0EJRN5clang6detail21SearchDirIteratorImplILb1EEERPKNS0_9FileEntryEEEC2ES4_S8_(ptr noundef nonnull align 8 dereferenceable(16) %0, ptr noundef nonnull align 8 dereferenceable(16) %1, ptr noundef nonnull align 8 dereferenceable(8) %2) unnamed_addr #0 comdat align 2 {
  %4 = alloca ptr, align 8
  %5 = alloca ptr, align 8
  %6 = alloca ptr, align 8
  store ptr %0, ptr %4, align 8
  store ptr %1, ptr %5, align 8
  store ptr %2, ptr %6, align 8
  %7 = load ptr, ptr %4, align 8
  %8 = load ptr, ptr %6, align 8
  call void @_ZNSt11_Tuple_implILm1EJRPKN5clang9FileEntryEEEC2ES4_(ptr noundef nonnull align 8 dereferenceable(8) %7, ptr noundef nonnull align 8 dereferenceable(8) %8)
  %9 = getelementptr inbounds i8, ptr %7, i64 8
  %10 = load ptr, ptr %5, align 8
  call void @_ZNSt10_Head_baseILm0ERN5clang6detail21SearchDirIteratorImplILb1EEELb0EEC2ES4_(ptr noundef nonnull align 8 dereferenceable(8) %9, ptr noundef nonnull align 8 dereferenceable(16) %10)
  ret void
}

; Function Attrs: mustprogress nounwind uwtable
define linkonce_odr hidden noundef nonnull align 8 dereferenceable(8) ptr @_ZNSt11_Tuple_implILm1EJRPKN5clang9FileEntryEEE7_M_headERS5_(ptr noundef nonnull align 8 dereferenceable(8) %0) #0 comdat align 2 {
  %2 = alloca ptr, align 8
  store ptr %0, ptr %2, align 8
  %3 = load ptr, ptr %2, align 8
  %4 = call noundef nonnull align 8 dereferenceable(8) ptr @_ZNSt10_Head_baseILm1ERPKN5clang9FileEntryELb0EE7_M_headERS5_(ptr noundef nonnull align 8 dereferenceable(8) %3) #11
  ret ptr %4
}

; Function Attrs: mustprogress nounwind uwtable
define linkonce_odr hidden noundef nonnull align 8 dereferenceable(8) ptr @_ZNSt11_Tuple_implILm0EJRN5clang6detail21SearchDirIteratorImplILb1EEERPKNS0_9FileEntryEEE7_M_tailERS9_(ptr noundef nonnull align 8 dereferenceable(16) %0) #0 comdat align 2 {
  %2 = alloca ptr, align 8
  store ptr %0, ptr %2, align 8
  %3 = load ptr, ptr %2, align 8
  ret ptr %3
}

; Function Attrs: mustprogress nounwind uwtable
define linkonce_odr hidden noundef nonnull align 8 dereferenceable(16) ptr @_ZNSt11_Tuple_implILm0EJRN5clang6detail21SearchDirIteratorImplILb1EEERPKNS0_9FileEntryEEE7_M_headERS9_(ptr noundef nonnull align 8 dereferenceable(16) %0) #0 comdat align 2 {
  %2 = alloca ptr, align 8
  store ptr %0, ptr %2, align 8
  %3 = load ptr, ptr %2, align 8
  %4 = getelementptr inbounds i8, ptr %3, i64 8
  %5 = call noundef nonnull align 8 dereferenceable(16) ptr @_ZNSt10_Head_baseILm0ERN5clang6detail21SearchDirIteratorImplILb1EEELb0EE7_M_headERS5_(ptr noundef nonnull align 8 dereferenceable(8) %4) #11
  ret ptr %5
}

; Function Attrs: mustprogress nounwind uwtable
define linkonce_odr hidden void @_ZNSt5tupleIJRN5clang6detail21SearchDirIteratorImplILb1EEERPKNS0_9FileEntryEEEC2ILb1ETnNSt9enable_ifIXclsr4_TCCIXT_EEE29__is_implicitly_constructibleIS4_S8_EEEbE4typeELb1EEES4_S8_(ptr noundef nonnull align 8 dereferenceable(16) %0, ptr noundef nonnull align 8 dereferenceable(16) %1, ptr noundef nonnull align 8 dereferenceable(8) %2) unnamed_addr #0 comdat align 2 {
  %4 = alloca ptr, align 8
  %5 = alloca ptr, align 8
  %6 = alloca ptr, align 8
  store ptr %0, ptr %4, align 8
  store ptr %1, ptr %5, align 8
  store ptr %2, ptr %6, align 8
  %7 = load ptr, ptr %4, align 8
  %8 = load ptr, ptr %5, align 8
  %9 = load ptr, ptr %6, align 8
  call void @_ZNSt11_Tuple_implILm0EJRN5clang6detail21SearchDirIteratorImplILb1EEERPKNS0_9FileEntryEEEC2ES4_S8_(ptr noundef nonnull align 8 dereferenceable(16) %7, ptr noundef nonnull align 8 dereferenceable(16) %8, ptr noundef nonnull align 8 dereferenceable(8) %9)
  ret void
}

; Function Attrs: mustprogress nounwind uwtable
define linkonce_odr hidden noundef nonnull align 8 dereferenceable(16) ptr @_ZNSt5tupleIJRN5clang6detail21SearchDirIteratorImplILb1EEERPKNS0_9FileEntryEEEaSIS3_S7_EENSt9enable_ifIXcl12__assignableIT_T0_EEERS9_E4typeEOSt4pairISC_SD_E(ptr noundef nonnull align 8 dereferenceable(16) %0, ptr noundef nonnull align 8 dereferenceable(24) %1) #0 comdat align 2 {
  %3 = alloca ptr, align 8
  %4 = alloca ptr, align 8
  store ptr %0, ptr %3, align 8
  store ptr %1, ptr %4, align 8
  %5 = load ptr, ptr %3, align 8
  %6 = load ptr, ptr %4, align 8
  %7 = getelementptr inbounds nuw %"struct.std::pair.491", ptr %6, i32 0, i32 0
  %8 = call noundef nonnull align 8 dereferenceable(16) ptr @_ZNSt11_Tuple_implILm0EJRN5clang6detail21SearchDirIteratorImplILb1EEERPKNS0_9FileEntryEEE7_M_headERS9_(ptr noundef nonnull align 8 dereferenceable(16) %5) #11
  call void @llvm.memcpy.p0.p0.i64(ptr align 8 %8, ptr align 8 %7, i64 16, i1 false)
  %9 = load ptr, ptr %4, align 8
  %10 = getelementptr inbounds nuw %"struct.std::pair.491", ptr %9, i32 0, i32 1
  %11 = load ptr, ptr %10, align 8
  %12 = call noundef nonnull align 8 dereferenceable(8) ptr @_ZNSt11_Tuple_implILm0EJRN5clang6detail21SearchDirIteratorImplILb1EEERPKNS0_9FileEntryEEE7_M_tailERS9_(ptr noundef nonnull align 8 dereferenceable(16) %5) #11
  %13 = call noundef nonnull align 8 dereferenceable(8) ptr @_ZNSt11_Tuple_implILm1EJRPKN5clang9FileEntryEEE7_M_headERS5_(ptr noundef nonnull align 8 dereferenceable(8) %5) #11
  store ptr %11, ptr %13, align 8
  ret ptr %5
}

; Function Attrs: mustprogress nounwind uwtable
define linkonce_odr void @_ZSt3tieIJN5clang6detail21SearchDirIteratorImplILb1EEEPKNS0_9FileEntryEEESt5tupleIJDpRT_EESA_(ptr dead_on_unwind noalias writable sret(%"class.std::tuple.493") align 8 %0, ptr noundef nonnull align 8 dereferenceable(16) %1, ptr noundef nonnull align 8 dereferenceable(8) %2) #0 comdat {
  %4 = alloca ptr, align 8
  %5 = alloca ptr, align 8
  %6 = alloca ptr, align 8
  store ptr %0, ptr %4, align 8
  store ptr %1, ptr %5, align 8
  store ptr %2, ptr %6, align 8
  %7 = load ptr, ptr %5, align 8
  %8 = load ptr, ptr %6, align 8
  call void @_ZNSt5tupleIJRN5clang6detail21SearchDirIteratorImplILb1EEERPKNS0_9FileEntryEEEC2ILb1ETnNSt9enable_ifIXclsr4_TCCIXT_EEE29__is_implicitly_constructibleIS4_S8_EEEbE4typeELb1EEES4_S8_(ptr noundef nonnull align 8 dereferenceable(16) %0, ptr noundef nonnull align 8 dereferenceable(16) %7, ptr noundef nonnull align 8 dereferenceable(8) %8) #11
  ret void
}

; Function Attrs: mustprogress nounwind uwtable
define linkonce_odr hidden void @_ZN5clang6detail21SearchDirIteratorImplILb1EEC2EDn(ptr noundef nonnull align 8 dereferenceable(16) %0, ptr %1) unnamed_addr #0 comdat align 2 {
  %3 = alloca ptr, align 8
  %4 = alloca ptr, align 8
  store ptr %0, ptr %3, align 8
  store ptr %1, ptr %4, align 8
  %5 = load ptr, ptr %3, align 8
  %6 = getelementptr inbounds nuw %"struct.clang::detail::SearchDirIteratorImpl", ptr %5, i32 0, i32 0
  store ptr null, ptr %6, align 8
  %7 = getelementptr inbounds nuw %"struct.clang::detail::SearchDirIteratorImpl", ptr %5, i32 0, i32 1
  store i64 0, ptr %7, align 8
  ret void
}

; Function Attrs: mustprogress nounwind uwtable
define dso_local noundef zeroext i1 @_ZN5clang12Preprocessor22EvaluateHasIncludeNextERNS_5TokenEPNS_14IdentifierInfoE(ptr noundef nonnull align 8 dereferenceable(3288) %0, ptr noundef nonnull align 8 dereferenceable(20) %1, ptr noundef %2) #0 align 2 {
  %4 = alloca ptr, align 8
  %5 = alloca ptr, align 8
  %6 = alloca ptr, align 8
  %7 = alloca %"struct.clang::detail::SearchDirIteratorImpl", align 8
  %8 = alloca ptr, align 8
  %9 = alloca %"struct.std::pair.491", align 8
  %10 = alloca %"class.std::tuple.493", align 8
  %11 = alloca %"struct.clang::detail::SearchDirIteratorImpl", align 8
  store ptr %0, ptr %4, align 8
  store ptr %1, ptr %5, align 8
  store ptr %2, ptr %6, align 8
  %12 = load ptr, ptr %4, align 8
  call void @_ZN5clang6detail21SearchDirIteratorImplILb1EEC2EDn(ptr noundef nonnull align 8 dereferenceable(16) %7, ptr null)
  %13 = load ptr, ptr %5, align 8
  call void @_ZNK5clang12Preprocessor19getIncludeNextStartERKNS_5TokenE(ptr dead_on_unwind writable sret(%"struct.std::pair.491") align 8 %9, ptr noundef nonnull align 8 dereferenceable(3288) %12, ptr noundef nonnull align 8 dereferenceable(20) %13)
  call void @_ZSt3tieIJN5clang6detail21SearchDirIteratorImplILb1EEEPKNS0_9FileEntryEEESt5tupleIJDpRT_EESA_(ptr dead_on_unwind writable sret(%"class.std::tuple.493") align 8 %10, ptr noundef nonnull align 8 dereferenceable(16) %7, ptr noundef nonnull align 8 dereferenceable(8) %8) #11
  %14 = call noundef nonnull align 8 dereferenceable(16) ptr @_ZNSt5tupleIJRN5clang6detail21SearchDirIteratorImplILb1EEERPKNS0_9FileEntryEEEaSIS3_S7_EENSt9enable_ifIXcl12__assignableIT_T0_EEERS9_E4typeEOSt4pairISC_SD_E(ptr noundef nonnull align 8 dereferenceable(16) %10, ptr noundef nonnull align 8 dereferenceable(24) %9) #11
  %15 = load ptr, ptr %5, align 8
  %16 = load ptr, ptr %6, align 8
  call void @llvm.memcpy.p0.p0.i64(ptr align 8 %11, ptr align 8 %7, i64 16, i1 false)
  %17 = load ptr, ptr %8, align 8
  %18 = getelementptr inbounds nuw { ptr, i64 }, ptr %11, i32 0, i32 0
  %19 = load ptr, ptr %18, align 8
  %20 = getelementptr inbounds nuw { ptr, i64 }, ptr %11, i32 0, i32 1
  %21 = load i64, ptr %20, align 8
  %22 = call noundef zeroext i1 @_ZL24EvaluateHasIncludeCommonRN5clang5TokenEPNS_14IdentifierInfoERNS_12PreprocessorENS_6detail21SearchDirIteratorImplILb1EEEPKNS_9FileEntryE(ptr noundef nonnull align 8 dereferenceable(20) %15, ptr noundef %16, ptr noundef nonnull align 8 dereferenceable(3288) %12, ptr %19, i64 %21, ptr noundef %17)
  ret i1 %22
}