; Function Attrs: mustprogress nounwind uwtable
define dso_local noundef zeroext i1 @_ZN5clang12Preprocessor22EvaluateHasIncludeNextERNS_5TokenEPNS_14IdentifierInfoE(ptr noundef nonnull align 8 dereferenceable(3288) %0, ptr noundef nonnull align 8 dereferenceable(20) %1, ptr noundef %2) local_unnamed_addr #1 align 2 {
  %4 = alloca %"struct.std::pair.491", align 8
  call void @_ZNK5clang12Preprocessor19getIncludeNextStartERKNS_5TokenE(ptr dead_on_unwind nonnull writable sret(%"struct.std::pair.491") align 8 %4, ptr noundef nonnull align 8 dereferenceable(3288) %0, ptr noundef nonnull align 8 dereferenceable(20) %1) #19
  %.sroa.0.0.copyload4 = load ptr, ptr %4, align 8
  %.sroa.3.0..sroa_idx = getelementptr inbounds nuw i8, ptr %4, i64 8
  %.sroa.3.0.copyload = load i64, ptr %.sroa.3.0..sroa_idx, align 8
  %5 = getelementptr inbounds nuw i8, ptr %4, i64 16
  %6 = load ptr, ptr %5, align 8
  %7 = call fastcc noundef zeroext i1 @_ZL24EvaluateHasIncludeCommonRN5clang5TokenEPNS_14IdentifierInfoERNS_12PreprocessorENS_6detail21SearchDirIteratorImplILb1EEEPKNS_9FileEntryE(ptr noundef nonnull align 8 dereferenceable(20) %1, ptr noundef %2, ptr noundef nonnull align 8 dereferenceable(3288) %0, ptr %.sroa.0.0.copyload4, i64 %.sroa.3.0.copyload, ptr noundef %6)
  ret i1 %7
}